; Function Attrs: mustprogress uwtable
define void @_ZN3gmx28ColvarsSimulationsParameters32setPeriodicBoundaryConditionTypeERK7PbcType(ptr noundef nonnull align 8 captures(none) dereferenceable(120) %0, ptr noundef nonnull readonly align 4 captures(none) dereferenceable(4) %1) local_unnamed_addr #1 align 2 personality ptr @__gxx_personality_v0 {
  %3 = tail call noalias noundef nonnull dereferenceable(4) ptr @_Znwm(i64 noundef 4) #21, !noalias !73
  %4 = load i32, ptr %1, align 4, !tbaa !76, !noalias !73
  store i32 %4, ptr %3, align 4, !tbaa !76, !noalias !73
  %5 = getelementptr inbounds nuw i8, ptr %0, i64 8
  %6 = load ptr, ptr %5, align 8, !tbaa !78
  store ptr %3, ptr %5, align 8, !tbaa !78
  %.not.i.i.i.i = icmp eq ptr %6, null
  br i1 %.not.i.i.i.i, label %_ZNSt10unique_ptrI7PbcTypeSt14default_deleteIS0_EED2Ev.exit, label %_ZNKSt14default_deleteI7PbcTypeEclEPS0_.exit.i.i.i.i

_ZNKSt14default_deleteI7PbcTypeEclEPS0_.exit.i.i.i.i: ; preds = %2
  tail call void @_ZdlPvm(ptr noundef nonnull %6, i64 noundef 4) #22
  br label %_ZNSt10unique_ptrI7PbcTypeSt14default_deleteIS0_EED2Ev.exit

_ZNSt10unique_ptrI7PbcTypeSt14default_deleteIS0_EED2Ev.exit: ; preds = %_ZNKSt14default_deleteI7PbcTypeEclEPS0_.exit.i.i.i.i, %2
  ret void
}